; Function Attrs: nounwind uwtable
define internal noalias noundef ptr @_testcapi_err_set_raised(ptr readnone captures(none) %0, ptr noundef %1) #0 {
  %3 = load i32, ptr %1, align 8, !tbaa !20
  %4 = icmp slt i32 %3, 0
  br i1 %4, label %Py_INCREF.exit, label %5

5:                                                ; preds = %2
  %6 = add nuw i32 %3, 1
  store i32 %6, ptr %1, align 8, !tbaa !20
  br label %Py_INCREF.exit

Py_INCREF.exit:                                   ; preds = %2, %5
  tail call void @PyErr_SetRaisedException(ptr noundef nonnull %1) #8
  %7 = tail call ptr @PyErr_Occurred() #8
  %.not = icmp eq ptr %7, null
  br i1 %.not, label %8, label %9

8:                                                ; preds = %Py_INCREF.exit
  tail call void @__assert_fail(ptr noundef nonnull @.str.34, ptr noundef nonnull @.str.35, i32 noundef 27, ptr noundef nonnull @__PRETTY_FUNCTION__._testcapi_err_set_raised) #9
  unreachable

9:                                                ; preds = %Py_INCREF.exit
  ret ptr null
}